target datalayout = "e-m:e-p270:32:32-p271:32:32-p272:64:64-i64:64-i128:128-f80:128-n8:16:32:64-S128"
target triple = "x86_64-pc-linux-gnu"

%"class.icu_77::UObject" = type { ptr }
%"class.icu_77::UnicodeSet" = type <{ %"class.icu_77::UnicodeFilter", ptr, i32, i32, i8, [7 x i8], ptr, ptr, i32, [4 x i8], ptr, i32, [4 x i8], ptr, ptr, [25 x i32], [4 x i8] }>
%"class.icu_77::UnicodeFilter" = type { %"class.icu_77::UnicodeFunctor", %"class.icu_77::UnicodeMatcher" }
%"class.icu_77::UnicodeFunctor" = type { %"class.icu_77::UObject" }
%"class.icu_77::UnicodeMatcher" = type { ptr }
%"class.icu_77::CheckResult" = type <{ %"class.icu_77::UObject", %"class.icu_77::IcuCApiHelper.1", i32, %"class.icu_77::UnicodeSet", i32, [4 x i8] }>
%"class.icu_77::IcuCApiHelper.1" = type { i32 }

@_ZTVN6icu_7711CheckResultE = unnamed_addr constant { [5 x ptr] } { [5 x ptr] [ptr null, ptr @_ZTIN6icu_7711CheckResultE, ptr @_ZN6icu_7711CheckResultD1Ev, ptr @_ZN6icu_7711CheckResultD0Ev, ptr @_ZNK6icu_777UObject17getDynamicClassIDEv] }, align 8
@_ZTVN6icu_777UObjectE = available_externally unnamed_addr constant { [5 x ptr] } { [5 x ptr] [ptr null, ptr @_ZTIN6icu_777UObjectE, ptr @_ZN6icu_777UObjectD1Ev, ptr @_ZN6icu_777UObjectD0Ev, ptr @_ZNK6icu_777UObject17getDynamicClassIDEv] }, align 8

; Function Attrs: mustprogress nounwind uwtable
define linkonce_odr void @_ZN6icu_7713IcuCApiHelperI17USpoofCheckResultNS_11CheckResultELi657779934EED2Ev(ptr noundef nonnull align 4 dereferenceable(4) %0) unnamed_addr #0 comdat align 2 {
  %2 = alloca ptr, align 8
  store ptr %0, ptr %2, align 8, !tbaa !75
  %3 = load ptr, ptr %2, align 8
  %4 = getelementptr inbounds nuw %"class.icu_77::IcuCApiHelper.1", ptr %3, i32 0, i32 0
  store i32 0, ptr %4, align 4, !tbaa !77
  ret void
}

; Function Attrs: mustprogress uwtable
define void @_ZN6icu_7711CheckResult5clearEv(ptr noundef nonnull align 8 dereferenceable(220) %0) #1 align 2 {
  %2 = alloca ptr, align 8
  store ptr %0, ptr %2, align 8, !tbaa !73
  %3 = load ptr, ptr %2, align 8
  %4 = getelementptr inbounds nuw %"class.icu_77::CheckResult", ptr %3, i32 0, i32 2
  store i32 0, ptr %4, align 4, !tbaa !79
  %5 = getelementptr inbounds nuw %"class.icu_77::CheckResult", ptr %3, i32 0, i32 3
  %6 = call noundef nonnull align 8 dereferenceable(200) ptr @_ZN6icu_7710UnicodeSet5clearEv(ptr noundef nonnull align 8 dereferenceable(200) %5)
  %7 = getelementptr inbounds nuw %"class.icu_77::CheckResult", ptr %3, i32 0, i32 4
  store i32 -1, ptr %7, align 8, !tbaa !88
  ret void
}

; Function Attrs: inlinehint mustprogress nounwind uwtable
define linkonce_odr void @_ZN6icu_7713IcuCApiHelperI17USpoofCheckResultNS_11CheckResultELi657779934EEC2Ev(ptr noundef nonnull align 4 dereferenceable(4) %0) unnamed_addr #2 comdat align 2 {
  %2 = alloca ptr, align 8
  store ptr %0, ptr %2, align 8, !tbaa !75
  %3 = load ptr, ptr %2, align 8
  %4 = getelementptr inbounds nuw %"class.icu_77::IcuCApiHelper.1", ptr %3, i32 0, i32 0
  store i32 657779934, ptr %4, align 4, !tbaa !77
  ret void
}

; Function Attrs: inlinehint mustprogress nounwind uwtable
define linkonce_odr void @_ZN6icu_777UObjectC2Ev(ptr noundef nonnull align 8 dereferenceable(8) %0) unnamed_addr #2 comdat align 2 {
  %2 = alloca ptr, align 8
  store ptr %0, ptr %2, align 8, !tbaa !21
  %3 = load ptr, ptr %2, align 8
  store ptr getelementptr inbounds inrange(-16, 24) ({ [5 x ptr] }, ptr @_ZTVN6icu_777UObjectE, i32 0, i32 0, i32 2), ptr %3, align 8, !tbaa !11
  ret void
}

; Function Attrs: mustprogress uwtable
define void @_ZN6icu_7711CheckResultC2Ev(ptr noundef nonnull align 8 dereferenceable(220) %0) unnamed_addr #1 align 2 personality ptr @__gxx_personality_v0 {
  %2 = alloca ptr, align 8
  %3 = alloca ptr, align 8
  %4 = alloca i32, align 4
  store ptr %0, ptr %2, align 8, !tbaa !73
  %5 = load ptr, ptr %2, align 8
  call void @_ZN6icu_777UObjectC2Ev(ptr noundef nonnull align 8 dereferenceable(8) %5) #15
  %6 = getelementptr inbounds i8, ptr %5, i64 8
  call void @_ZN6icu_7713IcuCApiHelperI17USpoofCheckResultNS_11CheckResultELi657779934EEC2Ev(ptr noundef nonnull align 4 dereferenceable(4) %6) #15
  store ptr getelementptr inbounds inrange(-16, 24) ({ [5 x ptr] }, ptr @_ZTVN6icu_7711CheckResultE, i32 0, i32 0, i32 2), ptr %5, align 8, !tbaa !11
  %7 = getelementptr inbounds nuw %"class.icu_77::CheckResult", ptr %5, i32 0, i32 3
  invoke void @_ZN6icu_7710UnicodeSetC1Ev(ptr noundef nonnull align 8 dereferenceable(200) %7)
          to label %8 unwind label %10

8:                                                ; preds = %1
  invoke void @_ZN6icu_7711CheckResult5clearEv(ptr noundef nonnull align 8 dereferenceable(220) %5)
          to label %9 unwind label %14

9:                                                ; preds = %8
  ret void

10:                                               ; preds = %1
  %11 = landingpad { ptr, i32 }
          cleanup
  %12 = extractvalue { ptr, i32 } %11, 0
  store ptr %12, ptr %3, align 8
  %13 = extractvalue { ptr, i32 } %11, 1
  store i32 %13, ptr %4, align 4
  br label %18

14:                                               ; preds = %8
  %15 = landingpad { ptr, i32 }
          cleanup
  %16 = extractvalue { ptr, i32 } %15, 0
  store ptr %16, ptr %3, align 8
  %17 = extractvalue { ptr, i32 } %15, 1
  store i32 %17, ptr %4, align 4
  call void @_ZN6icu_7710UnicodeSetD1Ev(ptr noundef nonnull align 8 dereferenceable(200) %7) #15
  br label %18

18:                                               ; preds = %14, %10
  %19 = getelementptr inbounds i8, ptr %5, i64 8
  call void @_ZN6icu_7713IcuCApiHelperI17USpoofCheckResultNS_11CheckResultELi657779934EED2Ev(ptr noundef nonnull align 4 dereferenceable(4) %19) #15
  call void @_ZN6icu_777UObjectD2Ev(ptr noundef nonnull align 8 dereferenceable(8) %5) #15
  br label %20

20:                                               ; preds = %18
  %21 = load ptr, ptr %3, align 8
  %22 = load i32, ptr %4, align 4
  %23 = insertvalue { ptr, i32 } poison, ptr %21, 0
  %24 = insertvalue { ptr, i32 } %23, i32 %22, 1
  resume { ptr, i32 } %24
}