; Function Attrs: mustprogress uwtable
define void @_ZN6icu_7711CheckResultC2Ev(ptr noundef nonnull align 8 dereferenceable(220) initializes((0, 12)) %0) unnamed_addr #1 align 2 personality ptr @__gxx_personality_v0 {
  %2 = getelementptr inbounds nuw i8, ptr %0, i64 8
  store i32 657779934, ptr %2, align 8, !tbaa !61
  store ptr getelementptr inbounds nuw inrange(-16, 24) (i8, ptr @_ZTVN6icu_7711CheckResultE, i64 16), ptr %0, align 8, !tbaa !8
  %3 = getelementptr inbounds nuw i8, ptr %0, i64 16
  invoke void @_ZN6icu_7710UnicodeSetC1Ev(ptr noundef nonnull align 8 dereferenceable(200) %3)
          to label %4 unwind label %9

4:                                                ; preds = %1
  %5 = getelementptr inbounds nuw i8, ptr %0, i64 12
  store i32 0, ptr %5, align 4, !tbaa !63
  %6 = invoke noundef nonnull align 8 dereferenceable(200) ptr @_ZN6icu_7710UnicodeSet5clearEv(ptr noundef nonnull align 8 dereferenceable(200) %3)
          to label %7 unwind label %11

7:                                                ; preds = %4
  %8 = getelementptr inbounds nuw i8, ptr %0, i64 216
  store i32 -1, ptr %8, align 8, !tbaa !72
  ret void

9:                                                ; preds = %1
  %10 = landingpad { ptr, i32 }
          cleanup
  br label %13

11:                                               ; preds = %4
  %12 = landingpad { ptr, i32 }
          cleanup
  tail call void @_ZN6icu_7710UnicodeSetD1Ev(ptr noundef nonnull align 8 dereferenceable(200) %3) #21
  br label %13

13:                                               ; preds = %11, %9
  %.pn = phi { ptr, i32 } [ %12, %11 ], [ %10, %9 ]
  store i32 0, ptr %2, align 8, !tbaa !61
  tail call void @_ZN6icu_777UObjectD2Ev(ptr noundef nonnull align 8 dereferenceable(8) %0) #21
  resume { ptr, i32 } %.pn
}